; Function Attrs: nounwind uwtable
define internal void @mark_object(ptr readnone captures(none) %0, ptr readnone captures(none) %1, ptr noundef captures(none) %2) #0 {
  %4 = getelementptr inbounds nuw i8, ptr %2, i64 8
  %5 = load i64, ptr %4, align 8, !tbaa !84
  %6 = add i64 %5, 1
  store i64 %6, ptr %4, align 8, !tbaa !84
  %7 = and i64 %6, 1023
  %8 = icmp eq i64 %7, 0
  br i1 %8, label %9, label %update_progress.exit

9:                                                ; preds = %3
  %10 = load ptr, ptr %2, align 8, !tbaa !81
  tail call void @display_progress(ptr noundef %10, i64 noundef %6) #11
  br label %update_progress.exit

update_progress.exit:                             ; preds = %3, %9
  ret void
}